; Function Attrs: nounwind uwtable
define i32 @Gia_ManComputeOverlap(ptr noundef %0) local_unnamed_addr #4 {
  %2 = getelementptr inbounds nuw i8, ptr %0, i64 24
  %3 = load i32, ptr %2, align 8, !tbaa !27
  %4 = getelementptr inbounds nuw i8, ptr %0, i64 64
  %5 = load ptr, ptr %4, align 8, !tbaa !80
  %6 = getelementptr i8, ptr %5, i64 4
  %.val3.i = load i32, ptr %6, align 4, !tbaa !54
  %7 = getelementptr inbounds nuw i8, ptr %0, i64 72
  %8 = load ptr, ptr %7, align 8, !tbaa !53
  %9 = getelementptr i8, ptr %8, i64 4
  %.val.i = load i32, ptr %9, align 4, !tbaa !54
  %reass.sub = sub i32 %.val3.i, %3
  %.neg = add i32 %reass.sub, 1
  %.neg12 = add i32 %.neg, %.val.i
  %10 = icmp sgt i32 %3, 1
  br i1 %10, label %.lr.ph, label %._crit_edge

.lr.ph:                                           ; preds = %1
  %11 = getelementptr i8, ptr %0, i64 264
  %12 = getelementptr i8, ptr %0, i64 176
  %13 = getelementptr i8, ptr %0, i64 616
  br label %14

14:                                               ; preds = %.lr.ph, %41
  %.val19 = phi i32 [ %3, %.lr.ph ], [ %.val, %41 ]
  %indvars.iv = phi i64 [ 1, %.lr.ph ], [ %indvars.iv.next, %41 ]
  %.017 = phi i32 [ %.neg12, %.lr.ph ], [ %.1, %41 ]
  %.val10 = load ptr, ptr %11, align 8, !tbaa !46
  %15 = getelementptr i8, ptr %.val10, i64 8
  %.val10.val = load ptr, ptr %15, align 8, !tbaa !47
  %16 = getelementptr inbounds nuw i32, ptr %.val10.val, i64 %indvars.iv
  %17 = load i32, ptr %16, align 4, !tbaa !48
  %.not13 = icmp eq i32 %17, 0
  br i1 %.not13, label %41, label %18

18:                                               ; preds = %14
  tail call void @Gia_ManIncrementTravId(ptr noundef nonnull %0) #27
  %.val.i11 = load ptr, ptr %11, align 8, !tbaa !46
  %19 = getelementptr i8, ptr %.val.i11, i64 8
  %.val.val.i = load ptr, ptr %19, align 8, !tbaa !47
  %20 = getelementptr inbounds nuw i32, ptr %.val.val.i, i64 %indvars.iv
  %21 = load i32, ptr %20, align 4, !tbaa !48
  %22 = sext i32 %21 to i64
  %23 = getelementptr inbounds i32, ptr %.val.val.i, i64 %22
  %24 = load i32, ptr %23, align 4, !tbaa !48
  %25 = icmp sgt i32 %24, 0
  br i1 %25, label %.lr.ph.i, label %Gia_ManComputeOverlapOne.exit

.lr.ph.i:                                         ; preds = %18
  %.val13.i = load ptr, ptr %13, align 8, !tbaa !85
  %.val12.pre.i = load i32, ptr %12, align 8, !tbaa !84
  %invariant.gep.i = getelementptr i8, ptr %.val.val.i, i64 4
  br label %26

26:                                               ; preds = %26, %.lr.ph.i
  %indvars.iv.i = phi i64 [ 0, %.lr.ph.i ], [ %indvars.iv.next.i, %26 ]
  %27 = phi i64 [ %22, %.lr.ph.i ], [ %33, %26 ]
  %gep.i = getelementptr i32, ptr %invariant.gep.i, i64 %27
  %28 = getelementptr inbounds nuw i32, ptr %gep.i, i64 %indvars.iv.i
  %29 = load i32, ptr %28, align 4, !tbaa !48
  %30 = sext i32 %29 to i64
  %31 = getelementptr inbounds i32, ptr %.val13.i, i64 %30
  store i32 %.val12.pre.i, ptr %31, align 4, !tbaa !48
  %indvars.iv.next.i = add nuw nsw i64 %indvars.iv.i, 1
  %32 = load i32, ptr %20, align 4, !tbaa !48
  %33 = sext i32 %32 to i64
  %34 = getelementptr inbounds i32, ptr %.val.val.i, i64 %33
  %35 = load i32, ptr %34, align 4, !tbaa !48
  %36 = sext i32 %35 to i64
  %37 = icmp slt i64 %indvars.iv.next.i, %36
  br i1 %37, label %26, label %Gia_ManComputeOverlapOne.exit, !llvm.loop !86

Gia_ManComputeOverlapOne.exit:                    ; preds = %26, %18
  %38 = trunc nuw nsw i64 %indvars.iv to i32
  %39 = tail call i32 @Gia_ManComputeOverlapOne_rec(ptr noundef nonnull %0, i32 noundef %38)
  %40 = add nsw i32 %39, %.017
  %.val.pre = load i32, ptr %2, align 8, !tbaa !27
  br label %41

41:                                               ; preds = %Gia_ManComputeOverlapOne.exit, %14
  %.val = phi i32 [ %.val.pre, %Gia_ManComputeOverlapOne.exit ], [ %.val19, %14 ]
  %.1 = phi i32 [ %40, %Gia_ManComputeOverlapOne.exit ], [ %.017, %14 ]
  %indvars.iv.next = add nuw nsw i64 %indvars.iv, 1
  %42 = sext i32 %.val to i64
  %43 = icmp slt i64 %indvars.iv.next, %42
  br i1 %43, label %14, label %._crit_edge, !llvm.loop !87

._crit_edge:                                      ; preds = %41, %1
  %.0.lcssa = phi i32 [ %.neg12, %1 ], [ %.1, %41 ]
  ret i32 %.0.lcssa
}